; Function Attrs: mustprogress uwtable
define hidden void @_ZN6Assimp11STLImporter16pushMeshesToNodeERSt6vectorIjSaIjEEP6aiNode(ptr noundef nonnull readnone align 8 captures(none) dereferenceable(112) %0, ptr noundef nonnull align 8 captures(none) dereferenceable(24) %1, ptr noundef captures(none) %2) local_unnamed_addr #3 align 2 personality ptr @__gxx_personality_v0 {
  %4 = load ptr, ptr %1, align 8
  %5 = getelementptr inbounds nuw i8, ptr %1, i64 8
  %6 = load ptr, ptr %5, align 8
  %7 = icmp eq ptr %4, %6
  br i1 %7, label %_ZNSt6vectorIjSaIjEE5clearEv.exit, label %8

8:                                                ; preds = %3
  %9 = ptrtoint ptr %6 to i64
  %10 = ptrtoint ptr %4 to i64
  %11 = sub i64 %9, %10
  %12 = lshr exact i64 %11, 2
  %13 = trunc i64 %12 to i32
  %14 = getelementptr inbounds nuw i8, ptr %2, i64 1120
  store i32 %13, ptr %14, align 8
  %15 = load ptr, ptr %5, align 8
  %16 = load ptr, ptr %1, align 8
  %17 = ptrtoint ptr %15 to i64
  %18 = ptrtoint ptr %16 to i64
  %19 = sub i64 %17, %18
  %20 = tail call i64 @llvm.smax.i64(i64 %19, i64 -1)
  %21 = tail call noalias noundef nonnull ptr @_Znam(i64 noundef %20) #22
  %22 = getelementptr inbounds nuw i8, ptr %2, i64 1128
  store ptr %21, ptr %22, align 8
  %23 = load ptr, ptr %5, align 8
  %24 = load ptr, ptr %1, align 8
  %.not = icmp eq ptr %23, %24
  br i1 %.not, label %._crit_edge, label %.lr.ph

._crit_edge:                                      ; preds = %.lr.ph, %8
  %.lcssa12 = phi ptr [ %23, %8 ], [ %32, %.lr.ph ]
  %.lcssa = phi ptr [ %24, %8 ], [ %33, %.lr.ph ]
  %.not.i.i = icmp eq ptr %.lcssa12, %.lcssa
  br i1 %.not.i.i, label %_ZNSt6vectorIjSaIjEE5clearEv.exit, label %25

25:                                               ; preds = %._crit_edge
  store ptr %.lcssa, ptr %5, align 8
  br label %_ZNSt6vectorIjSaIjEE5clearEv.exit

.lr.ph:                                           ; preds = %8, %.lr.ph
  %26 = phi ptr [ %33, %.lr.ph ], [ %24, %8 ]
  %.013 = phi i64 [ %31, %.lr.ph ], [ 0, %8 ]
  %27 = getelementptr inbounds nuw i32, ptr %26, i64 %.013
  %28 = load i32, ptr %27, align 4
  %29 = load ptr, ptr %22, align 8
  %30 = getelementptr inbounds nuw i32, ptr %29, i64 %.013
  store i32 %28, ptr %30, align 4
  %31 = add nuw i64 %.013, 1
  %32 = load ptr, ptr %5, align 8
  %33 = load ptr, ptr %1, align 8
  %34 = ptrtoint ptr %32 to i64
  %35 = ptrtoint ptr %33 to i64
  %36 = sub i64 %34, %35
  %37 = ashr exact i64 %36, 2
  %38 = icmp ult i64 %31, %37
  br i1 %38, label %.lr.ph, label %._crit_edge, !llvm.loop !38

_ZNSt6vectorIjSaIjEE5clearEv.exit:                ; preds = %25, %._crit_edge, %3
  ret void
}